; Function Attrs: mustprogress uwtable
define void @_ZN7rocksdb21EncryptedWritableFile15InvalidateCacheEmm(ptr dead_on_unwind noalias writable sret(%"class.rocksdb::IOStatus") align 8 %0, ptr noundef nonnull readonly align 8 captures(none) dereferenceable(64) %1, i64 noundef %2, i64 noundef %3) unnamed_addr #3 align 2 {
  %5 = getelementptr inbounds nuw i8, ptr %1, i64 40
  %6 = load ptr, ptr %5, align 8, !tbaa !108
  %7 = getelementptr inbounds nuw i8, ptr %1, i64 56
  %8 = load i64, ptr %7, align 8, !tbaa !133
  %9 = add i64 %8, %2
  %10 = load ptr, ptr %6, align 8, !tbaa !13
  %11 = getelementptr inbounds nuw i8, ptr %10, i64 176
  %12 = load ptr, ptr %11, align 8
  tail call void %12(ptr dead_on_unwind writable sret(%"class.rocksdb::IOStatus") align 8 %0, ptr noundef nonnull align 8 dereferenceable(33) %6, i64 noundef %9, i64 noundef %3)
  ret void
}